target datalayout = "e-m:e-p270:32:32-p271:32:32-p272:64:64-i64:64-i128:128-f80:128-n8:16:32:64-S128"
target triple = "x86_64-pc-linux-gnu"

%struct.ArgoASFFileHeader = type { i32, i16, i16, i32, i32, [9 x i8] }
%struct.ArgoASFChunkHeader = type { i32, i32, i32, i16, i16, i32 }
%struct.AVChannelLayout = type { i32, i32, %union.anon, ptr }
%union.anon = type { i64 }
%struct.AVStream = type { ptr, i32, i32, ptr, ptr, %struct.AVRational, i64, i64, i64, i32, i32, %struct.AVRational, ptr, %struct.AVRational, %struct.AVPacket, i32, %struct.AVRational, i32 }
%struct.AVPacket = type { ptr, i64, i64, ptr, i32, i32, i32, ptr, i32, i64, i64, ptr, ptr, %struct.AVRational }
%struct.AVRational = type { i32, i32 }
%struct.AVCodecParameters = type { i32, i32, i32, ptr, i32, ptr, i32, i32, i64, i32, i32, i32, i32, i32, i32, %struct.AVRational, %struct.AVRational, i32, i32, i32, i32, i32, i32, i32, %struct.AVChannelLayout, i32, i32, i32, i32, i32, i32 }
%struct.AVFormatContext = type { ptr, ptr, ptr, ptr, ptr, i32, i32, ptr, i32, ptr, i32, ptr, ptr, i64, i64, i64, i32, i32, i32, i64, i64, ptr, i32, i32, ptr, i32, i32, i32, i32, ptr, i64, i32, i32, %struct.AVIOInterruptCB, i32, i32, i32, i32, i64, i32, i32, i32, i32, i32, i32, i32, i32, i32, i32, i32, i32, i64, i32, i32, i32, i32, i32, ptr, ptr, ptr, ptr, i32, ptr, ptr, ptr, ptr, i32, ptr, ptr, i64, ptr, ptr, ptr, i64 }
%struct.AVIOInterruptCB = type { ptr, ptr }
%struct.ArgoASFDemuxContext = type { %struct.ArgoASFFileHeader, %struct.ArgoASFChunkHeader, i32 }

; Function Attrs: nounwind uwtable
define internal i32 @argo_asf_read_packet(ptr noundef %0, ptr noundef %1) #0 {
  %3 = alloca i32, align 4
  %4 = alloca ptr, align 8
  %5 = alloca ptr, align 8
  %6 = alloca ptr, align 8
  %7 = alloca ptr, align 8
  %8 = alloca ptr, align 8
  %9 = alloca i32, align 4
  %10 = alloca i32, align 4
  store ptr %0, ptr %4, align 8, !tbaa !20
  store ptr %1, ptr %5, align 8, !tbaa !86
  call void @llvm.lifetime.start.p0(i64 8, ptr %6) #6
  %11 = load ptr, ptr %4, align 8, !tbaa !20
  %12 = getelementptr inbounds nuw %struct.AVFormatContext, ptr %11, i32 0, i32 3
  %13 = load ptr, ptr %12, align 8, !tbaa !79
  store ptr %13, ptr %6, align 8, !tbaa !80
  call void @llvm.lifetime.start.p0(i64 8, ptr %7) #6
  %14 = load ptr, ptr %4, align 8, !tbaa !20
  %15 = getelementptr inbounds nuw %struct.AVFormatContext, ptr %14, i32 0, i32 7
  %16 = load ptr, ptr %15, align 8, !tbaa !88
  %17 = getelementptr inbounds ptr, ptr %16, i64 0
  %18 = load ptr, ptr %17, align 8, !tbaa !31
  store ptr %18, ptr %7, align 8, !tbaa !31
  call void @llvm.lifetime.start.p0(i64 8, ptr %8) #6
  %19 = load ptr, ptr %4, align 8, !tbaa !20
  %20 = getelementptr inbounds nuw %struct.AVFormatContext, ptr %19, i32 0, i32 4
  %21 = load ptr, ptr %20, align 8, !tbaa !66
  store ptr %21, ptr %8, align 8, !tbaa !78
  call void @llvm.lifetime.start.p0(i64 4, ptr %9) #6
  %22 = load ptr, ptr %6, align 8, !tbaa !80
  %23 = getelementptr inbounds nuw %struct.ArgoASFDemuxContext, ptr %22, i32 0, i32 2
  %24 = load i32, ptr %23, align 4, !tbaa !89
  %25 = load ptr, ptr %6, align 8, !tbaa !80
  %26 = getelementptr inbounds nuw %struct.ArgoASFDemuxContext, ptr %25, i32 0, i32 1
  %27 = getelementptr inbounds nuw %struct.ArgoASFChunkHeader, ptr %26, i32 0, i32 0
  %28 = load i32, ptr %27, align 4, !tbaa !90
  %29 = icmp uge i32 %24, %28
  br i1 %29, label %30, label %31

30:                                               ; preds = %2
  store i32 -541478725, ptr %3, align 4
  store i32 1, ptr %10, align 4
  br label %123

31:                                               ; preds = %2
  %32 = load ptr, ptr %8, align 8, !tbaa !78
  %33 = load ptr, ptr %5, align 8, !tbaa !86
  %34 = load ptr, ptr %7, align 8, !tbaa !31
  %35 = getelementptr inbounds nuw %struct.AVStream, ptr %34, i32 0, i32 3
  %36 = load ptr, ptr %35, align 8, !tbaa !33
  %37 = getelementptr inbounds nuw %struct.AVCodecParameters, ptr %36, i32 0, i32 26
  %38 = load i32, ptr %37, align 4, !tbaa !57
  %39 = load ptr, ptr %6, align 8, !tbaa !80
  %40 = getelementptr inbounds nuw %struct.ArgoASFDemuxContext, ptr %39, i32 0, i32 1
  %41 = getelementptr inbounds nuw %struct.ArgoASFChunkHeader, ptr %40, i32 0, i32 0
  %42 = load i32, ptr %41, align 4, !tbaa !90
  %43 = load ptr, ptr %6, align 8, !tbaa !80
  %44 = getelementptr inbounds nuw %struct.ArgoASFDemuxContext, ptr %43, i32 0, i32 2
  %45 = load i32, ptr %44, align 4, !tbaa !89
  %46 = sub i32 %42, %45
  %47 = icmp ugt i32 32, %46
  br i1 %47, label %48, label %57

48:                                               ; preds = %31
  %49 = load ptr, ptr %6, align 8, !tbaa !80
  %50 = getelementptr inbounds nuw %struct.ArgoASFDemuxContext, ptr %49, i32 0, i32 1
  %51 = getelementptr inbounds nuw %struct.ArgoASFChunkHeader, ptr %50, i32 0, i32 0
  %52 = load i32, ptr %51, align 4, !tbaa !90
  %53 = load ptr, ptr %6, align 8, !tbaa !80
  %54 = getelementptr inbounds nuw %struct.ArgoASFDemuxContext, ptr %53, i32 0, i32 2
  %55 = load i32, ptr %54, align 4, !tbaa !89
  %56 = sub i32 %52, %55
  br label %58

57:                                               ; preds = %31
  br label %58

58:                                               ; preds = %57, %48
  %59 = phi i32 [ %56, %48 ], [ 32, %57 ]
  %60 = mul i32 %38, %59
  %61 = call i32 @av_get_packet(ptr noundef %32, ptr noundef %33, i32 noundef %60)
  store i32 %61, ptr %9, align 4, !tbaa !52
  %62 = load i32, ptr %9, align 4, !tbaa !52
  %63 = icmp slt i32 %62, 0
  br i1 %63, label %64, label %66

64:                                               ; preds = %58
  %65 = load i32, ptr %9, align 4, !tbaa !52
  store i32 %65, ptr %3, align 4
  store i32 1, ptr %10, align 4
  br label %123

66:                                               ; preds = %58
  %67 = load i32, ptr %9, align 4, !tbaa !52
  %68 = load ptr, ptr %7, align 8, !tbaa !31
  %69 = getelementptr inbounds nuw %struct.AVStream, ptr %68, i32 0, i32 3
  %70 = load ptr, ptr %69, align 8, !tbaa !33
  %71 = getelementptr inbounds nuw %struct.AVCodecParameters, ptr %70, i32 0, i32 26
  %72 = load i32, ptr %71, align 4, !tbaa !57
  %73 = srem i32 %67, %72
  %74 = icmp ne i32 %73, 0
  br i1 %74, label %75, label %76

75:                                               ; preds = %66
  store i32 -1094995529, ptr %3, align 4
  store i32 1, ptr %10, align 4
  br label %123

76:                                               ; preds = %66
  %77 = load ptr, ptr %7, align 8, !tbaa !31
  %78 = getelementptr inbounds nuw %struct.AVStream, ptr %77, i32 0, i32 1
  %79 = load i32, ptr %78, align 8, !tbaa !91
  %80 = load ptr, ptr %5, align 8, !tbaa !86
  %81 = getelementptr inbounds nuw %struct.AVPacket, ptr %80, i32 0, i32 5
  store i32 %79, ptr %81, align 4, !tbaa !92
  %82 = load ptr, ptr %6, align 8, !tbaa !80
  %83 = getelementptr inbounds nuw %struct.ArgoASFDemuxContext, ptr %82, i32 0, i32 1
  %84 = getelementptr inbounds nuw %struct.ArgoASFChunkHeader, ptr %83, i32 0, i32 1
  %85 = load i32, ptr %84, align 4, !tbaa !93
  %86 = load i32, ptr %9, align 4, !tbaa !52
  %87 = load ptr, ptr %7, align 8, !tbaa !31
  %88 = getelementptr inbounds nuw %struct.AVStream, ptr %87, i32 0, i32 3
  %89 = load ptr, ptr %88, align 8, !tbaa !33
  %90 = getelementptr inbounds nuw %struct.AVCodecParameters, ptr %89, i32 0, i32 26
  %91 = load i32, ptr %90, align 4, !tbaa !57
  %92 = sdiv i32 %86, %91
  %93 = mul i32 %85, %92
  %94 = zext i32 %93 to i64
  %95 = load ptr, ptr %5, align 8, !tbaa !86
  %96 = getelementptr inbounds nuw %struct.AVPacket, ptr %95, i32 0, i32 9
  store i64 %94, ptr %96, align 8, !tbaa !94
  %97 = load ptr, ptr %6, align 8, !tbaa !80
  %98 = getelementptr inbounds nuw %struct.ArgoASFDemuxContext, ptr %97, i32 0, i32 2
  %99 = load i32, ptr %98, align 4, !tbaa !89
  %100 = load ptr, ptr %6, align 8, !tbaa !80
  %101 = getelementptr inbounds nuw %struct.ArgoASFDemuxContext, ptr %100, i32 0, i32 1
  %102 = getelementptr inbounds nuw %struct.ArgoASFChunkHeader, ptr %101, i32 0, i32 1
  %103 = load i32, ptr %102, align 4, !tbaa !93
  %104 = mul i32 %99, %103
  %105 = zext i32 %104 to i64
  %106 = load ptr, ptr %5, align 8, !tbaa !86
  %107 = getelementptr inbounds nuw %struct.AVPacket, ptr %106, i32 0, i32 1
  store i64 %105, ptr %107, align 8, !tbaa !95
  %108 = load i32, ptr %9, align 4, !tbaa !52
  %109 = load ptr, ptr %7, align 8, !tbaa !31
  %110 = getelementptr inbounds nuw %struct.AVStream, ptr %109, i32 0, i32 3
  %111 = load ptr, ptr %110, align 8, !tbaa !33
  %112 = getelementptr inbounds nuw %struct.AVCodecParameters, ptr %111, i32 0, i32 26
  %113 = load i32, ptr %112, align 4, !tbaa !57
  %114 = sdiv i32 %108, %113
  %115 = load ptr, ptr %6, align 8, !tbaa !80
  %116 = getelementptr inbounds nuw %struct.ArgoASFDemuxContext, ptr %115, i32 0, i32 2
  %117 = load i32, ptr %116, align 4, !tbaa !89
  %118 = add i32 %117, %114
  store i32 %118, ptr %116, align 4, !tbaa !89
  %119 = load ptr, ptr %5, align 8, !tbaa !86
  %120 = getelementptr inbounds nuw %struct.AVPacket, ptr %119, i32 0, i32 6
  %121 = load i32, ptr %120, align 8, !tbaa !96
  %122 = and i32 %121, -3
  store i32 %122, ptr %120, align 8, !tbaa !96
  store i32 0, ptr %3, align 4
  store i32 1, ptr %10, align 4
  br label %123

123:                                              ; preds = %76, %75, %64, %30
  call void @llvm.lifetime.end.p0(i64 4, ptr %9) #6
  call void @llvm.lifetime.end.p0(i64 8, ptr %8) #6
  call void @llvm.lifetime.end.p0(i64 8, ptr %7) #6
  call void @llvm.lifetime.end.p0(i64 8, ptr %6) #6
  %124 = load i32, ptr %3, align 4
  ret i32 %124
}