; Function Attrs: nounwind uwtable
define internal range(i32 -2147483648, 1) i32 @argo_asf_read_packet(ptr noundef readonly captures(none) %0, ptr noundef %1) #3 {
  %3 = getelementptr inbounds nuw i8, ptr %0, i64 24
  %4 = load ptr, ptr %3, align 8, !tbaa !63
  %5 = getelementptr inbounds nuw i8, ptr %0, i64 48
  %6 = load ptr, ptr %5, align 8, !tbaa !64
  %7 = load ptr, ptr %6, align 8, !tbaa !65
  %8 = getelementptr inbounds nuw i8, ptr %4, i64 48
  %9 = load i32, ptr %8, align 4, !tbaa !67
  %10 = getelementptr inbounds nuw i8, ptr %4, i64 28
  %11 = load i32, ptr %10, align 4, !tbaa !69
  %.not = icmp ult i32 %9, %11
  br i1 %.not, label %12, label %46

12:                                               ; preds = %2
  %13 = getelementptr inbounds nuw i8, ptr %0, i64 32
  %14 = load ptr, ptr %13, align 8, !tbaa !51
  %15 = getelementptr inbounds nuw i8, ptr %7, i64 16
  %16 = load ptr, ptr %15, align 8, !tbaa !22
  %17 = getelementptr inbounds nuw i8, ptr %16, i64 156
  %18 = load i32, ptr %17, align 4, !tbaa !44
  %19 = sub nuw i32 %11, %9
  %spec.select = tail call i32 @llvm.umin.i32(i32 %19, i32 32)
  %20 = mul i32 %18, %spec.select
  %21 = tail call i32 @av_get_packet(ptr noundef %14, ptr noundef %1, i32 noundef %20) #10
  %22 = icmp slt i32 %21, 0
  br i1 %22, label %46, label %23

23:                                               ; preds = %12
  %24 = load ptr, ptr %15, align 8, !tbaa !22
  %25 = getelementptr inbounds nuw i8, ptr %24, i64 156
  %26 = load i32, ptr %25, align 4, !tbaa !44
  %27 = srem i32 %21, %26
  %28 = sdiv i32 %21, %26
  %.not33 = icmp eq i32 %27, 0
  br i1 %.not33, label %29, label %46

29:                                               ; preds = %23
  %30 = getelementptr inbounds nuw i8, ptr %7, i64 8
  %31 = load i32, ptr %30, align 8, !tbaa !70
  %32 = getelementptr inbounds nuw i8, ptr %1, i64 36
  store i32 %31, ptr %32, align 4, !tbaa !71
  %33 = getelementptr inbounds nuw i8, ptr %4, i64 32
  %34 = load i32, ptr %33, align 4, !tbaa !72
  %35 = mul i32 %28, %34
  %36 = zext i32 %35 to i64
  %37 = getelementptr inbounds nuw i8, ptr %1, i64 64
  store i64 %36, ptr %37, align 8, !tbaa !73
  %38 = load i32, ptr %8, align 4, !tbaa !67
  %39 = mul i32 %38, %34
  %40 = zext i32 %39 to i64
  %41 = getelementptr inbounds nuw i8, ptr %1, i64 8
  store i64 %40, ptr %41, align 8, !tbaa !74
  %42 = add i32 %38, %28
  store i32 %42, ptr %8, align 4, !tbaa !67
  %43 = getelementptr inbounds nuw i8, ptr %1, i64 40
  %44 = load i32, ptr %43, align 8, !tbaa !75
  %45 = and i32 %44, -3
  store i32 %45, ptr %43, align 8, !tbaa !75
  br label %46

46:                                               ; preds = %23, %12, %2, %29
  %.0 = phi i32 [ 0, %29 ], [ -541478725, %2 ], [ %21, %12 ], [ -1094995529, %23 ]
  ret i32 %.0
}